; Function Attrs: mustprogress uwtable
define hidden void @_ZN28horn_subsume_model_converter16add_default_procclEP3app(ptr noundef nonnull readonly align 8 captures(none) dereferenceable(16) %0, ptr noundef %1) local_unnamed_addr #3 align 2 {
  %3 = load ptr, ptr %0, align 8, !tbaa !203
  %4 = tail call noundef zeroext i1 @_ZNK11ast_manager7is_boolEPK4expr(ptr noundef nonnull align 8 dereferenceable(976) %3, ptr noundef %1)
  br i1 %4, label %5, label %40

5:                                                ; preds = %2
  %6 = getelementptr inbounds nuw i8, ptr %0, i64 8
  %7 = load ptr, ptr %6, align 8, !tbaa !206
  %8 = load ptr, ptr %7, align 8, !tbaa !207
  %9 = getelementptr inbounds nuw i8, ptr %1, i64 16
  %10 = load ptr, ptr %9, align 8, !tbaa !92
  %11 = tail call noundef zeroext i1 @_ZNK10model_core18has_interpretationEP9func_decl(ptr noundef nonnull align 8 dereferenceable(96) %8, ptr noundef %10)
  br i1 %11, label %40, label %12

12:                                               ; preds = %5
  %13 = load ptr, ptr %9, align 8, !tbaa !92
  %14 = getelementptr inbounds nuw i8, ptr %13, i64 24
  %15 = load ptr, ptr %14, align 8, !tbaa !97
  %16 = icmp eq ptr %15, null
  br i1 %16, label %_ZNK3app13get_family_idEv.exit.thread, label %_ZNK3app13get_family_idEv.exit

_ZNK3app13get_family_idEv.exit:                   ; preds = %12
  %17 = load i32, ptr %15, align 8, !tbaa !102
  %18 = icmp eq i32 %17, -1
  br i1 %18, label %_ZNK3app13get_family_idEv.exit.thread, label %40

_ZNK3app13get_family_idEv.exit.thread:            ; preds = %12, %_ZNK3app13get_family_idEv.exit
  %19 = getelementptr inbounds nuw i8, ptr %13, i64 32
  %20 = load i32, ptr %19, align 8, !tbaa !210
  %21 = icmp eq i32 %20, 0
  br i1 %21, label %22, label %28

22:                                               ; preds = %_ZNK3app13get_family_idEv.exit.thread
  %23 = load ptr, ptr %6, align 8, !tbaa !206
  %24 = load ptr, ptr %23, align 8, !tbaa !207
  %25 = load ptr, ptr %0, align 8, !tbaa !203
  %26 = getelementptr inbounds nuw i8, ptr %25, i64 864
  %27 = load ptr, ptr %26, align 8, !tbaa !212
  tail call void @_ZN10model_core13register_declEP9func_declP4expr(ptr noundef nonnull align 8 dereferenceable(96) %24, ptr noundef nonnull %13, ptr noundef %27)
  br label %40

28:                                               ; preds = %_ZNK3app13get_family_idEv.exit.thread
  %29 = tail call noalias noundef ptr @_ZN6memory8allocateEm(i64 noundef 56)
  %30 = load ptr, ptr %0, align 8, !tbaa !203
  %31 = load ptr, ptr %9, align 8, !tbaa !92
  %32 = getelementptr inbounds nuw i8, ptr %31, i64 32
  %33 = load i32, ptr %32, align 8, !tbaa !210
  tail call void @_ZN11func_interpC1ER11ast_managerj(ptr noundef nonnull align 8 dereferenceable(56) %29, ptr noundef nonnull align 8 dereferenceable(976) %30, i32 noundef %33)
  %34 = load ptr, ptr %0, align 8, !tbaa !203
  %35 = getelementptr inbounds nuw i8, ptr %34, i64 864
  %36 = load ptr, ptr %35, align 8, !tbaa !212
  tail call void @_ZN11func_interp8set_elseEP4expr(ptr noundef nonnull align 8 dereferenceable(56) %29, ptr noundef %36)
  %37 = load ptr, ptr %6, align 8, !tbaa !206
  %38 = load ptr, ptr %37, align 8, !tbaa !207
  %39 = load ptr, ptr %9, align 8, !tbaa !92
  tail call void @_ZN10model_core13register_declEP9func_declP11func_interp(ptr noundef nonnull align 8 dereferenceable(96) %38, ptr noundef %39, ptr noundef nonnull %29)
  br label %40

40:                                               ; preds = %22, %28, %_ZNK3app13get_family_idEv.exit, %5, %2
  ret void
}